TN:
SF:/usr/include/c++/5/bits/alloc_traits.h
FN:516,_ZNSt16allocator_traitsISaI4CardEE10deallocateERS1_PS0_m
FNDA:0,_ZNSt16allocator_traitsISaI4CardEE10deallocateERS1_PS0_m
FNF:1
FNH:0
DA:516,0
DA:517,0
LF:2
LH:0
end_of_record
SF:/usr/include/c++/5/bits/allocator.h
FN:113,_ZNSaI4CardEC2Ev
FN:121,_ZNSaI4CardED2Ev
FNDA:7,_ZNSaI4CardEC2Ev
FNDA:7,_ZNSaI4CardED2Ev
FNF:2
FNH:2
DA:113,14
DA:121,14
LF:2
LH:2
end_of_record
SF:/usr/include/c++/5/bits/stl_construct.h
FN:112,_ZNSt12_Destroy_auxILb1EE9__destroyIP4CardEEvT_S4_
FN:122,_ZSt8_DestroyIP4CardEvT_S2_
FN:148,_ZSt8_DestroyIP4CardS0_EvT_S2_RSaIT0_E
FNDA:0,_ZNSt12_Destroy_auxILb1EE9__destroyIP4CardEEvT_S4_
FNDA:0,_ZSt8_DestroyIP4CardEvT_S2_
FNDA:0,_ZSt8_DestroyIP4CardS0_EvT_S2_RSaIT0_E
FNF:3
FNH:0
DA:112,0
DA:122,0
DA:126,0
DA:128,0
DA:148,0
DA:151,0
DA:152,0
LF:7
LH:0
end_of_record
SF:/usr/include/c++/5/bits/stl_vector.h
FN:79,_ZNSt12_Vector_baseI4CardSaIS0_EE12_Vector_implD2Ev
FN:86,_ZNSt12_Vector_baseI4CardSaIS0_EE12_Vector_implC2Ev
FN:113,_ZNSt12_Vector_baseI4CardSaIS0_EE19_M_get_Tp_allocatorEv
FN:124,_ZNSt12_Vector_baseI4CardSaIS0_EEC2Ev
FN:159,_ZNSt12_Vector_baseI4CardSaIS0_EED2Ev
FN:174,_ZNSt12_Vector_baseI4CardSaIS0_EE13_M_deallocateEPS0_m
FN:253,_ZNSt6vectorI4CardSaIS0_EEC2Ev
FN:423,_ZNSt6vectorI4CardSaIS0_EED2Ev
FNDA:7,_ZNSt12_Vector_baseI4CardSaIS0_EE12_Vector_implD2Ev
FNDA:7,_ZNSt12_Vector_baseI4CardSaIS0_EE12_Vector_implC2Ev
FNDA:0,_ZNSt12_Vector_baseI4CardSaIS0_EE19_M_get_Tp_allocatorEv
FNDA:7,_ZNSt12_Vector_baseI4CardSaIS0_EEC2Ev
FNDA:7,_ZNSt12_Vector_baseI4CardSaIS0_EED2Ev
FNDA:0,_ZNSt12_Vector_baseI4CardSaIS0_EE13_M_deallocateEPS0_m
FNDA:7,_ZNSt6vectorI4CardSaIS0_EEC2Ev
FNDA:7,_ZNSt6vectorI4CardSaIS0_EED2Ev
FNF:8
FNH:6
BRDA:177,0,0,-
BRDA:177,0,1,-
BRF:2
BRH:0
DA:79,14
DA:86,7
DA:87,7
DA:88,7
DA:113,0
DA:114,0
DA:124,7
DA:125,7
DA:159,7
DA:160,7
DA:161,7
DA:174,0
DA:177,0
DA:178,0
DA:179,0
DA:253,7
DA:257,7
DA:423,7
DA:424,7
DA:425,14
LF:20
LH:14
end_of_record
SF:/usr/include/c++/5/ext/new_allocator.h
FN:79,_ZN9__gnu_cxx13new_allocatorI4CardEC2Ev
FN:86,_ZN9__gnu_cxx13new_allocatorI4CardED2Ev
FN:109,_ZN9__gnu_cxx13new_allocatorI4CardE10deallocateEPS1_m
FNDA:7,_ZN9__gnu_cxx13new_allocatorI4CardEC2Ev
FNDA:7,_ZN9__gnu_cxx13new_allocatorI4CardED2Ev
FNDA:0,_ZN9__gnu_cxx13new_allocatorI4CardE10deallocateEPS1_m
FNF:3
FNH:2
DA:79,7
DA:86,7
DA:109,0
DA:110,0
LF:4
LH:2
end_of_record
SF:/usr/include/c++/5/iostream
DA:74,7
LF:1
LH:1
end_of_record
SF:/usr/include/c++/5/limits
FN:1140,_ZNSt14numeric_limitsIlE3maxEv
FNDA:0,_ZNSt14numeric_limitsIlE3maxEv
FNF:1
FNH:0
DA:1140,0
LF:1
LH:0
end_of_record
SF:/home/lepossum/Prac/Kittens/Coverage/Include/cards.hpp
FN:34,_ZN4DeckD2Ev
FN:34,_ZN4DeckC2Ev
FN:55,_ZN6PlayerC2Ev
FN:65,_ZN6Player9didntloseEv
FN:66,_ZN6Player11get_lost_amEv
FN:67,_ZN6Player8set_p_amEi
FNDA:7,_ZN4DeckD2Ev
FNDA:7,_ZN4DeckC2Ev
FNDA:25,_ZN6PlayerC2Ev
FNDA:125,_ZN6Player9didntloseEv
FNDA:90,_ZN6Player11get_lost_amEv
FNDA:7,_ZN6Player8set_p_amEi
FNF:6
FNH:6
BRDA:56,1,0,150
BRDA:56,1,1,25
BRF:2
BRH:2
DA:34,28
DA:55,25
DA:56,175
DA:57,150
DA:59,25
DA:65,250
DA:66,180
DA:67,7
LF:8
LH:8
end_of_record
SF:/home/lepossum/Prac/Kittens/Coverage/Source/main.cpp
FN:12,main
FN:68,_Z41__static_initialization_and_destruction_0ii
FN:68,_GLOBAL__sub_I__ZN6Player11lost_amountE
FNDA:7,main
FNDA:7,_GLOBAL__sub_I__ZN6Player11lost_amountE
FNDA:7,_Z41__static_initialization_and_destruction_0ii
FNF:3
FNH:3
BRDA:17,0,0,10
BRDA:17,0,1,7
BRDA:18,0,1,10
BRDA:18,0,2,0
BRDA:19,0,1,11
BRDA:19,0,2,0
BRDA:19,1,4,11
BRDA:19,1,5,0
BRDA:19,2,6,10
BRDA:19,2,7,1
BRDA:19,3,9,10
BRDA:19,3,10,0
BRDA:19,4,11,0
BRDA:19,4,12,10
BRDA:19,7,13,1
BRDA:19,7,14,10
BRDA:20,0,1,1
BRDA:20,0,2,0
BRDA:21,0,2,1
BRDA:21,0,3,0
BRDA:22,0,1,1
BRDA:22,0,2,0
BRDA:24,0,1,10
BRDA:24,0,2,0
BRDA:25,0,0,8
BRDA:25,0,1,2
BRDA:26,0,0,7
BRDA:26,0,1,1
BRDA:30,0,1,3
BRDA:30,0,2,0
BRDA:30,1,3,3
BRDA:30,1,4,0
BRDA:30,2,6,3
BRDA:30,2,7,0
BRDA:31,0,1,3
BRDA:31,0,2,0
BRDA:35,4294967295,1,7
BRDA:35,4294967295,2,0
BRDA:37,1,0,25
BRDA:37,1,1,7
BRDA:41,1,0,21
BRDA:41,1,1,7
BRDA:42,1,0,75
BRDA:42,1,1,21
BRDA:43,0,1,75
BRDA:43,0,2,0
BRDA:54,0,1,90
BRDA:54,0,2,35
BRDA:55,0,1,83
BRDA:55,0,2,7
BRDA:57,0,1,83
BRDA:57,0,2,0
BRDA:60,0,1,7
BRDA:60,0,2,0
BRDA:60,1,4,7
BRDA:60,1,5,0
BRDA:60,2,7,7
BRDA:60,2,8,0
BRDA:66,4294967295,1,-
BRDA:66,4294967295,2,-
BRDA:68,3,1,7
BRDA:68,3,2,0
BRDA:68,4,3,7
BRDA:68,4,4,0
BRF:64
BRH:41
DA:12,7
DA:14,7
DA:15,7
DA:16,7
DA:17,17
DA:18,10
DA:19,11
DA:20,1
DA:21,1
DA:22,1
DA:24,10
DA:25,10
DA:26,8
DA:27,7
DA:28,7
DA:30,3
DA:31,3
DA:34,14
DA:35,7
DA:37,32
DA:41,28
DA:42,96
DA:43,75
DA:50,7
DA:52,125
DA:54,125
DA:55,90
DA:57,83
DA:58,83
DA:60,7
DA:61,7
DA:63,118
DA:64,7
DA:65,0
DA:66,0
DA:68,28
LF:36
LH:34
end_of_record
SF:/usr/include/c++/5/bits/alloc_traits.h
FN:516,_ZNSt16allocator_traitsISaI4CardEE10deallocateERS1_PS0_m
FNDA:0,_ZNSt16allocator_traitsISaI4CardEE10deallocateERS1_PS0_m
FNF:1
FNH:0
DA:516,0
DA:517,0
LF:2
LH:0
end_of_record
SF:/usr/include/c++/5/bits/allocator.h
FN:113,_ZNSaI4CardEC2Ev
FN:121,_ZNSaI4CardED2Ev
FNDA:7,_ZNSaI4CardEC2Ev
FNDA:7,_ZNSaI4CardED2Ev
FNF:2
FNH:2
DA:113,7
DA:121,7
LF:2
LH:2
end_of_record
SF:/home/lepossum/Prac/Kittens/Coverage/Include/cards.hpp
FN:34,_ZN4DeckD2Ev
FN:34,_ZN4DeckC2Ev
FN:55,_ZN6PlayerC2Ev
FN:65,_ZN6Player9didntloseEv
FN:66,_ZN6Player11get_lost_amEv
FN:67,_ZN6Player8set_p_amEi
FNDA:7,_ZN4DeckD2Ev
FNDA:7,_ZN4DeckC2Ev
FNDA:25,_ZN6PlayerC2Ev
FNDA:125,_ZN6Player9didntloseEv
FNDA:90,_ZN6Player11get_lost_amEv
FNDA:7,_ZN6Player8set_p_amEi
FNF:6
FNH:6
BRDA:56,4294967295,0,86
BRDA:56,4294967295,1,14
BRF:2
BRH:2
DA:34,14
DA:55,25
DA:56,175
DA:57,150
DA:59,25
DA:65,125
DA:66,90
DA:67,7
LF:8
LH:8
end_of_record
SF:/usr/include/c++/5/iostream
DA:74,7
LF:1
LH:1
end_of_record
SF:/usr/include/c++/5/limits
FN:1140,_ZNSt14numeric_limitsIlE3maxEv
FNDA:0,_ZNSt14numeric_limitsIlE3maxEv
FNF:1
FNH:0
DA:1140,0
LF:1
LH:0
end_of_record
SF:/home/lepossum/Prac/Kittens/Coverage/Source/main.cpp
FN:12,main
FN:68,_Z41__static_initialization_and_destruction_0ii
FN:68,_GLOBAL__sub_I__ZN6Player11lost_amountE
FNDA:7,main
FNDA:7,_GLOBAL__sub_I__ZN6Player11lost_amountE
FNDA:7,_Z41__static_initialization_and_destruction_0ii
FNF:3
FNH:3
BRDA:17,4294967295,0,59
BRDA:17,4294967295,1,41
BRDA:18,4294967295,1,100
BRDA:18,4294967295,2,0
BRDA:19,4294967295,1,100
BRDA:19,4294967295,2,0
BRDA:19,4294967295,4,100
BRDA:19,4294967295,5,0
BRDA:19,4294967295,6,91
BRDA:19,4294967295,7,9
BRDA:19,4294967295,9,100
BRDA:19,4294967295,10,0
BRDA:19,4294967295,11,0
BRDA:19,4294967295,12,100
BRDA:19,4294967295,13,9
BRDA:19,4294967295,14,91
BRDA:20,4294967295,1,100
BRDA:20,4294967295,2,0
BRDA:21,4294967295,2,100
BRDA:21,4294967295,3,0
BRDA:22,4294967295,1,100
BRDA:22,4294967295,2,0
BRDA:24,4294967295,1,100
BRDA:24,4294967295,2,0
BRDA:25,4294967295,0,80
BRDA:25,4294967295,1,20
BRDA:26,4294967295,0,88
BRDA:26,4294967295,1,13
BRDA:30,4294967295,1,100
BRDA:30,4294967295,2,0
BRDA:30,4294967295,3,100
BRDA:30,4294967295,4,0
BRDA:30,4294967295,6,100
BRDA:30,4294967295,7,0
BRDA:31,4294967295,1,100
BRDA:31,4294967295,2,0
BRDA:35,4294967295,1,100
BRDA:35,4294967295,2,0
BRDA:37,4294967295,0,78
BRDA:37,4294967295,1,22
BRDA:41,4294967295,0,75
BRDA:41,4294967295,1,25
BRDA:42,4294967295,0,78
BRDA:42,4294967295,1,22
BRDA:43,4294967295,1,100
BRDA:43,4294967295,2,0
BRDA:54,4294967295,1,72
BRDA:54,4294967295,2,28
BRDA:55,4294967295,1,92
BRDA:55,4294967295,2,8
BRDA:57,4294967295,1,100
BRDA:57,4294967295,2,0
BRDA:60,4294967295,1,100
BRDA:60,4294967295,2,0
BRDA:60,4294967295,4,100
BRDA:60,4294967295,5,0
BRDA:60,4294967295,7,100
BRDA:60,4294967295,8,0
BRDA:66,4294967295,1,-
BRDA:66,4294967295,2,-
BRDA:68,4294967295,1,100
BRDA:68,4294967295,2,0
BRDA:68,4294967295,3,100
BRDA:68,4294967295,4,0
BRF:64
BRH:41
DA:12,7
DA:14,7
DA:15,7
DA:16,7
DA:17,27
DA:18,10
DA:19,12
DA:20,1
DA:21,1
DA:22,1
DA:24,10
DA:25,10
DA:26,8
DA:27,7
DA:28,7
DA:30,3
DA:31,3
DA:34,14
DA:35,7
DA:37,7
DA:41,28
DA:42,96
DA:43,75
DA:50,7
DA:52,118
DA:54,125
DA:55,90
DA:57,83
DA:58,83
DA:60,7
DA:61,7
DA:63,118
DA:64,7
DA:65,0
DA:66,0
DA:68,21
LF:36
LH:34
end_of_record
SF:/usr/include/c++/5/ext/new_allocator.h
FN:79,_ZN9__gnu_cxx13new_allocatorI4CardEC2Ev
FN:86,_ZN9__gnu_cxx13new_allocatorI4CardED2Ev
FN:109,_ZN9__gnu_cxx13new_allocatorI4CardE10deallocateEPS1_m
FNDA:7,_ZN9__gnu_cxx13new_allocatorI4CardEC2Ev
FNDA:7,_ZN9__gnu_cxx13new_allocatorI4CardED2Ev
FNDA:0,_ZN9__gnu_cxx13new_allocatorI4CardE10deallocateEPS1_m
FNF:3
FNH:2
DA:79,7
DA:86,7
DA:109,0
DA:110,0
LF:4
LH:2
end_of_record
SF:/usr/include/c++/5/bits/stl_construct.h
FN:112,_ZNSt12_Destroy_auxILb1EE9__destroyIP4CardEEvT_S4_
FN:122,_ZSt8_DestroyIP4CardEvT_S2_
FN:148,_ZSt8_DestroyIP4CardS0_EvT_S2_RSaIT0_E
FNDA:0,_ZNSt12_Destroy_auxILb1EE9__destroyIP4CardEEvT_S4_
FNDA:0,_ZSt8_DestroyIP4CardEvT_S2_
FNDA:0,_ZSt8_DestroyIP4CardS0_EvT_S2_RSaIT0_E
FNF:3
FNH:0
DA:112,0
DA:122,0
DA:126,0
DA:128,0
DA:148,0
DA:151,0
DA:152,0
LF:7
LH:0
end_of_record
SF:/usr/include/c++/5/bits/stl_vector.h
FN:79,_ZNSt12_Vector_baseI4CardSaIS0_EE12_Vector_implD2Ev
FN:86,_ZNSt12_Vector_baseI4CardSaIS0_EE12_Vector_implC2Ev
FN:113,_ZNSt12_Vector_baseI4CardSaIS0_EE19_M_get_Tp_allocatorEv
FN:124,_ZNSt12_Vector_baseI4CardSaIS0_EEC2Ev
FN:159,_ZNSt12_Vector_baseI4CardSaIS0_EED2Ev
FN:174,_ZNSt12_Vector_baseI4CardSaIS0_EE13_M_deallocateEPS0_m
FN:253,_ZNSt6vectorI4CardSaIS0_EEC2Ev
FN:423,_ZNSt6vectorI4CardSaIS0_EED2Ev
FNDA:7,_ZNSt12_Vector_baseI4CardSaIS0_EE12_Vector_implD2Ev
FNDA:7,_ZNSt12_Vector_baseI4CardSaIS0_EE12_Vector_implC2Ev
FNDA:0,_ZNSt12_Vector_baseI4CardSaIS0_EE19_M_get_Tp_allocatorEv
FNDA:7,_ZNSt12_Vector_baseI4CardSaIS0_EEC2Ev
FNDA:7,_ZNSt12_Vector_baseI4CardSaIS0_EED2Ev
FNDA:0,_ZNSt12_Vector_baseI4CardSaIS0_EE13_M_deallocateEPS0_m
FNDA:7,_ZNSt6vectorI4CardSaIS0_EEC2Ev
FNDA:7,_ZNSt6vectorI4CardSaIS0_EED2Ev
FNF:8
FNH:6
BRDA:177,4294967295,0,-
BRDA:177,4294967295,1,-
BRF:2
BRH:0
DA:79,7
DA:86,7
DA:87,7
DA:88,7
DA:113,0
DA:114,0
DA:124,7
DA:125,7
DA:159,7
DA:160,14
DA:161,21
DA:174,0
DA:177,0
DA:178,0
DA:179,0
DA:253,7
DA:257,7
DA:423,7
DA:424,7
DA:425,14
LF:20
LH:14
end_of_record
TN:
SF:/usr/include/c++/5/bits/alloc_traits.h
FN:490,_ZNSt16allocator_traitsISaI4CardEE8allocateERS1_m
FN:516,_ZNSt16allocator_traitsISaI4CardEE10deallocateERS1_PS0_m
FN:529,_ZNSt16allocator_traitsISaI4CardEE9constructIS0_JS0_EEEvRS1_PT_DpOT0_
FN:541,_ZNSt16allocator_traitsISaI4CardEE7destroyIS0_EEvRS1_PT_
FN:550,_ZNSt16allocator_traitsISaI4CardEE8max_sizeERKS1_
FNDA:42,_ZNSt16allocator_traitsISaI4CardEE8allocateERS1_m
FNDA:42,_ZNSt16allocator_traitsISaI4CardEE10deallocateERS1_PS0_m
FNDA:197,_ZNSt16allocator_traitsISaI4CardEE9constructIS0_JS0_EEEvRS1_PT_DpOT0_
FNDA:142,_ZNSt16allocator_traitsISaI4CardEE7destroyIS0_EEvRS1_PT_
FNDA:84,_ZNSt16allocator_traitsISaI4CardEE8max_sizeERKS1_
FNF:5
FNH:5
DA:490,42
DA:491,42
DA:516,42
DA:517,42
DA:529,197
DA:530,197
DA:541,142
DA:542,142
DA:550,84
DA:551,84
LF:10
LH:10
end_of_record
SF:/usr/include/c++/5/bits/move.h
FN:47,_ZSt11__addressofI4CardEPT_RS1_
FN:76,_ZSt7forwardI4CardEOT_RNSt16remove_referenceIS1_E4typeE
FN:101,_ZSt4moveIR4CardEONSt16remove_referenceIT_E4typeEOS3_
FN:176,_ZSt4swapI4CardEvRT_S2_
FNDA:217,_ZSt11__addressofI4CardEPT_RS1_
FNDA:853,_ZSt7forwardI4CardEOT_RNSt16remove_referenceIS1_E4typeE
FNDA:401,_ZSt4moveIR4CardEONSt16remove_referenceIT_E4typeEOS3_
FNDA:0,_ZSt4swapI4CardEvRT_S2_
FNF:4
FNH:3
DA:47,217
DA:50,217
DA:76,853
DA:77,853
DA:101,401
DA:102,401
DA:176,0
DA:185,0
DA:186,0
DA:187,0
DA:188,0
LF:11
LH:6
end_of_record
SF:/usr/include/c++/5/bits/predefined_ops.h
FN:115,_ZN9__gnu_cxx5__ops15_Iter_comp_iterIZN4Deck7shuffleEvEUl4CardS3_E_EC2ES4_
FN:122,_ZN9__gnu_cxx5__ops15_Iter_comp_iterIZN4Deck7shuffleEvEUl4CardS3_E_EclINS_17__normal_iteratorIPS3_St6vectorIS3_SaIS3_EEEESC_EEbT_T0_
FN:129,_ZN9__gnu_cxx5__ops16__iter_comp_iterIZN4Deck7shuffleEvEUl4CardS3_E_EENS0_15_Iter_comp_iterIT_EES6_
FN:137,_ZN9__gnu_cxx5__ops14_Iter_comp_valIZN4Deck7shuffleEvEUl4CardS3_E_EC2ES4_
FN:143,_ZN9__gnu_cxx5__ops14_Iter_comp_valIZN4Deck7shuffleEvEUl4CardS3_E_EclINS_17__normal_iteratorIPS3_St6vectorIS3_SaIS3_EEEES3_EEbT_RT0_
FN:154,_ZN9__gnu_cxx5__ops15__iter_comp_valIZN4Deck7shuffleEvEUl4CardS3_E_EENS0_14_Iter_comp_valIT_EENS0_15_Iter_comp_iterIS6_EE
FN:162,_ZN9__gnu_cxx5__ops14_Val_comp_iterIZN4Deck7shuffleEvEUl4CardS3_E_EC2ES4_
FN:168,_ZN9__gnu_cxx5__ops14_Val_comp_iterIZN4Deck7shuffleEvEUl4CardS3_E_EclIS3_NS_17__normal_iteratorIPS3_St6vectorIS3_SaIS3_EEEEEEbRT_T0_
FN:179,_ZN9__gnu_cxx5__ops15__val_comp_iterIZN4Deck7shuffleEvEUl4CardS3_E_EENS0_14_Val_comp_iterIT_EENS0_15_Iter_comp_iterIS6_EE
FNDA:5,_ZN9__gnu_cxx5__ops15_Iter_comp_iterIZN4Deck7shuffleEvEUl4CardS3_E_EC2ES4_
FNDA:37,_ZN9__gnu_cxx5__ops15_Iter_comp_iterIZN4Deck7shuffleEvEUl4CardS3_E_EclINS_17__normal_iteratorIPS3_St6vectorIS3_SaIS3_EEEESC_EEbT_T0_
FNDA:5,_ZN9__gnu_cxx5__ops16__iter_comp_iterIZN4Deck7shuffleEvEUl4CardS3_E_EENS0_15_Iter_comp_iterIT_EES6_
FNDA:0,_ZN9__gnu_cxx5__ops14_Iter_comp_valIZN4Deck7shuffleEvEUl4CardS3_E_EC2ES4_
FNDA:0,_ZN9__gnu_cxx5__ops14_Iter_comp_valIZN4Deck7shuffleEvEUl4CardS3_E_EclINS_17__normal_iteratorIPS3_St6vectorIS3_SaIS3_EEEES3_EEbT_RT0_
FNDA:0,_ZN9__gnu_cxx5__ops15__iter_comp_valIZN4Deck7shuffleEvEUl4CardS3_E_EENS0_14_Iter_comp_valIT_EENS0_15_Iter_comp_iterIS6_EE
FNDA:29,_ZN9__gnu_cxx5__ops14_Val_comp_iterIZN4Deck7shuffleEvEUl4CardS3_E_EC2ES4_
FNDA:110,_ZN9__gnu_cxx5__ops14_Val_comp_iterIZN4Deck7shuffleEvEUl4CardS3_E_EclIS3_NS_17__normal_iteratorIPS3_St6vectorIS3_SaIS3_EEEEEEbRT_T0_
FNDA:29,_ZN9__gnu_cxx5__ops15__val_comp_iterIZN4Deck7shuffleEvEUl4CardS3_E_EENS0_14_Val_comp_iterIT_EENS0_15_Iter_comp_iterIS6_EE
FNF:9
FNH:6
DA:115,5
DA:117,5
DA:122,37
DA:123,37
DA:129,5
DA:130,5
DA:137,0
DA:139,0
DA:143,0
DA:144,0
DA:154,0
DA:155,0
DA:162,29
DA:164,29
DA:168,110
DA:169,110
DA:179,29
DA:180,29
LF:18
LH:12
end_of_record
SF:/usr/include/c++/5/bits/stl_algo.h
FN:78,_ZSt22__move_median_to_firstIN9__gnu_cxx17__normal_iteratorIP4CardSt6vectorIS2_SaIS2_EEEENS0_5__ops15_Iter_comp_iterIZN4Deck7shuffleEvEUlS2_S2_E_EEEvT_SD_SD_SD_T0_
FN:1665,_ZSt13__heap_selectIN9__gnu_cxx17__normal_iteratorIP4CardSt6vectorIS2_SaIS2_EEEENS0_5__ops15_Iter_comp_iterIZN4Deck7shuffleEvEUlS2_S2_E_EEEvT_SD_SD_T0_
FN:1816,_ZSt25__unguarded_linear_insertIN9__gnu_cxx17__normal_iteratorIP4CardSt6vectorIS2_SaIS2_EEEENS0_5__ops14_Val_comp_iterIZN4Deck7shuffleEvEUlS2_S2_E_EEEvT_T0_
FN:1835,_ZSt16__insertion_sortIN9__gnu_cxx17__normal_iteratorIP4CardSt6vectorIS2_SaIS2_EEEENS0_5__ops15_Iter_comp_iterIZN4Deck7shuffleEvEUlS2_S2_E_EEEvT_SD_T0_
FN:1858,_ZSt26__unguarded_insertion_sortIN9__gnu_cxx17__normal_iteratorIP4CardSt6vectorIS2_SaIS2_EEEENS0_5__ops15_Iter_comp_iterIZN4Deck7shuffleEvEUlS2_S2_E_EEEvT_SD_T0_
FN:1875,_ZSt22__final_insertion_sortIN9__gnu_cxx17__normal_iteratorIP4CardSt6vectorIS2_SaIS2_EEEENS0_5__ops15_Iter_comp_iterIZN4Deck7shuffleEvEUlS2_S2_E_EEEvT_SD_T0_
FN:1891,_ZSt21__unguarded_partitionIN9__gnu_cxx17__normal_iteratorIP4CardSt6vectorIS2_SaIS2_EEEENS0_5__ops15_Iter_comp_iterIZN4Deck7shuffleEvEUlS2_S2_E_EEET_SD_SD_SD_T0_
FN:1912,_ZSt27__unguarded_partition_pivotIN9__gnu_cxx17__normal_iteratorIP4CardSt6vectorIS2_SaIS2_EEEENS0_5__ops15_Iter_comp_iterIZN4Deck7shuffleEvEUlS2_S2_E_EEET_SD_SD_T0_
FN:1923,_ZSt14__partial_sortIN9__gnu_cxx17__normal_iteratorIP4CardSt6vectorIS2_SaIS2_EEEENS0_5__ops15_Iter_comp_iterIZN4Deck7shuffleEvEUlS2_S2_E_EEEvT_SD_SD_T0_
FN:1935,_ZSt16__introsort_loopIN9__gnu_cxx17__normal_iteratorIP4CardSt6vectorIS2_SaIS2_EEEElNS0_5__ops15_Iter_comp_iterIZN4Deck7shuffleEvEUlS2_S2_E_EEEvT_SD_T0_T1_
FN:1958,_ZSt6__sortIN9__gnu_cxx17__normal_iteratorIP4CardSt6vectorIS2_SaIS2_EEEENS0_5__ops15_Iter_comp_iterIZN4Deck7shuffleEvEUlS2_S2_E_EEEvT_SD_T0_
FN:4718,_ZSt4sortIN9__gnu_cxx17__normal_iteratorIP4CardSt6vectorIS2_SaIS2_EEEEZN4Deck7shuffleEvEUlS2_S2_E_EvT_SA_T0_
FNDA:0,_ZSt22__move_median_to_firstIN9__gnu_cxx17__normal_iteratorIP4CardSt6vectorIS2_SaIS2_EEEENS0_5__ops15_Iter_comp_iterIZN4Deck7shuffleEvEUlS2_S2_E_EEEvT_SD_SD_SD_T0_
FNDA:0,_ZSt13__heap_selectIN9__gnu_cxx17__normal_iteratorIP4CardSt6vectorIS2_SaIS2_EEEENS0_5__ops15_Iter_comp_iterIZN4Deck7shuffleEvEUlS2_S2_E_EEEvT_SD_SD_T0_
FNDA:29,_ZSt25__unguarded_linear_insertIN9__gnu_cxx17__normal_iteratorIP4CardSt6vectorIS2_SaIS2_EEEENS0_5__ops14_Val_comp_iterIZN4Deck7shuffleEvEUlS2_S2_E_EEEvT_T0_
FNDA:5,_ZSt16__insertion_sortIN9__gnu_cxx17__normal_iteratorIP4CardSt6vectorIS2_SaIS2_EEEENS0_5__ops15_Iter_comp_iterIZN4Deck7shuffleEvEUlS2_S2_E_EEEvT_SD_T0_
FNDA:0,_ZSt26__unguarded_insertion_sortIN9__gnu_cxx17__normal_iteratorIP4CardSt6vectorIS2_SaIS2_EEEENS0_5__ops15_Iter_comp_iterIZN4Deck7shuffleEvEUlS2_S2_E_EEEvT_SD_T0_
FNDA:5,_ZSt22__final_insertion_sortIN9__gnu_cxx17__normal_iteratorIP4CardSt6vectorIS2_SaIS2_EEEENS0_5__ops15_Iter_comp_iterIZN4Deck7shuffleEvEUlS2_S2_E_EEEvT_SD_T0_
FNDA:0,_ZSt21__unguarded_partitionIN9__gnu_cxx17__normal_iteratorIP4CardSt6vectorIS2_SaIS2_EEEENS0_5__ops15_Iter_comp_iterIZN4Deck7shuffleEvEUlS2_S2_E_EEET_SD_SD_SD_T0_
FNDA:0,_ZSt27__unguarded_partition_pivotIN9__gnu_cxx17__normal_iteratorIP4CardSt6vectorIS2_SaIS2_EEEENS0_5__ops15_Iter_comp_iterIZN4Deck7shuffleEvEUlS2_S2_E_EEET_SD_SD_T0_
FNDA:0,_ZSt14__partial_sortIN9__gnu_cxx17__normal_iteratorIP4CardSt6vectorIS2_SaIS2_EEEENS0_5__ops15_Iter_comp_iterIZN4Deck7shuffleEvEUlS2_S2_E_EEEvT_SD_SD_T0_
FNDA:5,_ZSt16__introsort_loopIN9__gnu_cxx17__normal_iteratorIP4CardSt6vectorIS2_SaIS2_EEEElNS0_5__ops15_Iter_comp_iterIZN4Deck7shuffleEvEUlS2_S2_E_EEEvT_SD_T0_T1_
FNDA:5,_ZSt6__sortIN9__gnu_cxx17__normal_iteratorIP4CardSt6vectorIS2_SaIS2_EEEENS0_5__ops15_Iter_comp_iterIZN4Deck7shuffleEvEUlS2_S2_E_EEEvT_SD_T0_
FNDA:5,_ZSt4sortIN9__gnu_cxx17__normal_iteratorIP4CardSt6vectorIS2_SaIS2_EEEEZN4Deck7shuffleEvEUlS2_S2_E_EvT_SA_T0_
FNF:12
FNH:6
BRDA:81,0,1,-
BRDA:81,0,2,-
BRDA:83,0,1,-
BRDA:83,0,2,-
BRDA:85,0,1,-
BRDA:85,0,2,-
BRDA:90,0,1,-
BRDA:90,0,2,-
BRDA:92,0,1,-
BRDA:92,0,2,-
BRDA:1670,0,1,-
BRDA:1670,0,2,-
BRDA:1671,0,1,-
BRDA:1671,0,2,-
BRDA:1672,0,1,-
BRDA:1672,0,2,-
BRDA:1823,0,1,81
BRDA:1823,0,2,29
BRDA:1838,0,1,0
BRDA:1838,0,2,5
BRDA:1840,1,2,37
BRDA:1840,1,3,5
BRDA:1842,0,1,8
BRDA:1842,0,2,29
BRDA:1846,4294967295,2,8
BRDA:1846,4294967295,3,0
BRDA:1850,0,1,29
BRDA:1850,0,2,0
BRDA:1850,1,4,29
BRDA:1850,1,5,0
BRDA:1861,1,1,-
BRDA:1861,1,2,-
BRDA:1862,0,1,-
BRDA:1862,0,2,-
BRDA:1862,1,4,-
BRDA:1862,1,5,-
BRDA:1878,0,1,0
BRDA:1878,0,2,5
BRDA:1897,0,1,-
BRDA:1897,0,2,-
BRDA:1900,0,1,-
BRDA:1900,0,2,-
BRDA:1902,0,1,-
BRDA:1902,0,2,-
BRDA:1916,4294967295,3,-
BRDA:1916,4294967295,4,-
BRDA:1918,0,2,-
BRDA:1918,0,3,-
BRDA:1939,0,1,0
BRDA:1939,0,2,5
BRDA:1941,0,0,-
BRDA:1941,0,1,-
BRDA:1943,0,1,-
BRDA:1943,0,2,-
BRDA:1948,0,1,-
BRDA:1948,0,2,-
BRDA:1949,0,1,-
BRDA:1949,0,2,-
BRDA:1961,0,1,5
BRDA:1961,0,2,0
BRF:60
BRH:13
DA:78,0
DA:81,0
DA:83,0
DA:84,0
DA:85,0
DA:86,0
DA:88,0
DA:90,0
DA:91,0
DA:92,0
DA:93,0
DA:95,0
DA:96,0
DA:1665,0
DA:1669,0
DA:1670,0
DA:1671,0
DA:1672,0
DA:1673,0
DA:1816,29
DA:1820,29
DA:1821,29
DA:1822,29
DA:1823,110
DA:1825,81
DA:1826,81
DA:1827,81
DA:1829,29
DA:1830,29
DA:1835,5
DA:1838,5
DA:1840,42
DA:1842,37
DA:1845,8
DA:1846,8
DA:1847,8
DA:1850,29
DA:1858,0
DA:1861,0
DA:1862,0
DA:1864,0
DA:1875,5
DA:1878,5
DA:1880,0
DA:1881,0
DA:1885,5
DA:1886,5
DA:1891,0
DA:1895,0
DA:1897,0
DA:1898,0
DA:1899,0
DA:1900,0
DA:1901,0
DA:1902,0
DA:1903,0
DA:1904,0
DA:1905,0
DA:1912,0
DA:1915,0
DA:1916,0
DA:1918,0
DA:1923,0
DA:1928,0
DA:1929,0
DA:1930,0
DA:1935,5
DA:1939,5
DA:1941,0
DA:1943,0
DA:1944,0
DA:1946,0
DA:1948,0
DA:1949,0
DA:1950,0
DA:1958,5
DA:1961,5
DA:1963,5
DA:1964,5
DA:1966,5
DA:1968,5
DA:4718,5
DA:4729,5
DA:4730,5
LF:84
LH:33
end_of_record
SF:/usr/include/c++/5/bits/stl_algobase.h
FN:120,_ZSt9iter_swapIN9__gnu_cxx17__normal_iteratorIP4CardSt6vectorIS2_SaIS2_EEEES7_EvT_T0_
FN:219,_ZSt3maxImERKT_S2_S2_
FN:282,_ZSt12__niter_baseIP4CardENSt11_Niter_baseIT_E13iterator_typeES3_
FN:282,_ZSt12__niter_baseIN9__gnu_cxx17__normal_iteratorIP4CardSt6vectorIS2_SaIS2_EEEEENSt11_Niter_baseIT_E13iterator_typeES9_
FN:293,_ZSt12__miter_baseIP4CardENSt11_Miter_baseIT_E13iterator_typeES3_
FN:293,_ZSt12__miter_baseIN9__gnu_cxx17__normal_iteratorIP4CardSt6vectorIS2_SaIS2_EEEEENSt11_Miter_baseIT_E13iterator_typeES9_
FN:560,_ZNSt20__copy_move_backwardILb1ELb0ESt26random_access_iterator_tagE13__copy_move_bIP4CardS4_EET0_T_S6_S5_
FN:593,_ZSt22__copy_move_backward_aILb1EP4CardS1_ET1_T0_S3_S2_
FN:611,_ZSt23__copy_move_backward_a2ILb1EN9__gnu_cxx17__normal_iteratorIP4CardSt6vectorIS2_SaIS2_EEEES7_ET1_T0_S9_S8_
FN:611,_ZSt23__copy_move_backward_a2ILb1EP4CardS1_ET1_T0_S3_S2_
FN:674,_ZSt13move_backwardIP4CardS1_ET0_T_S3_S2_
FN:674,_ZSt13move_backwardIN9__gnu_cxx17__normal_iteratorIP4CardSt6vectorIS2_SaIS2_EEEES7_ET0_T_S9_S8_
FN:1024,_ZSt4__lgl
FNDA:0,_ZSt9iter_swapIN9__gnu_cxx17__normal_iteratorIP4CardSt6vectorIS2_SaIS2_EEEES7_EvT_T0_
FNDA:42,_ZSt3maxImERKT_S2_S2_
FNDA:24,_ZSt12__niter_baseIN9__gnu_cxx17__normal_iteratorIP4CardSt6vectorIS2_SaIS2_EEEEENSt11_Niter_baseIT_E13iterator_typeES9_
FNDA:9,_ZSt12__niter_baseIP4CardENSt11_Niter_baseIT_E13iterator_typeES3_
FNDA:16,_ZSt12__miter_baseIN9__gnu_cxx17__normal_iteratorIP4CardSt6vectorIS2_SaIS2_EEEEENSt11_Miter_baseIT_E13iterator_typeES9_
FNDA:6,_ZSt12__miter_baseIP4CardENSt11_Miter_baseIT_E13iterator_typeES3_
FNDA:11,_ZNSt20__copy_move_backwardILb1ELb0ESt26random_access_iterator_tagE13__copy_move_bIP4CardS4_EET0_T_S6_S5_
FNDA:11,_ZSt22__copy_move_backward_aILb1EP4CardS1_ET1_T0_S3_S2_
FNDA:8,_ZSt23__copy_move_backward_a2ILb1EN9__gnu_cxx17__normal_iteratorIP4CardSt6vectorIS2_SaIS2_EEEES7_ET1_T0_S9_S8_
FNDA:3,_ZSt23__copy_move_backward_a2ILb1EP4CardS1_ET1_T0_S3_S2_
FNDA:8,_ZSt13move_backwardIN9__gnu_cxx17__normal_iteratorIP4CardSt6vectorIS2_SaIS2_EEEES7_ET0_T_S9_S8_
FNDA:3,_ZSt13move_backwardIP4CardS1_ET0_T_S3_S2_
FNDA:5,_ZSt4__lgl
FNF:13
FNH:12
BRDA:224,0,0,7
BRDA:224,0,1,35
BRDA:563,1,0,46
BRDA:563,1,1,11
BRF:4
BRH:4
DA:120,0
DA:148,0
DA:150,0
DA:219,42
DA:224,42
DA:225,7
DA:226,35
DA:282,33
DA:283,33
DA:293,22
DA:294,22
DA:560,11
DA:563,57
DA:564,46
DA:565,11
DA:593,11
DA:601,11
DA:606,11
DA:611,11
DA:614,11
DA:615,11
DA:674,11
DA:684,11
DA:686,11
DA:1024,5
DA:1025,5
LF:26
LH:23
end_of_record
SF:/usr/include/c++/5/bits/stl_construct.h
FN:74,_ZSt10_ConstructI4CardJS0_EEvPT_DpOT0_
FN:112,_ZNSt12_Destroy_auxILb1EE9__destroyIP4CardEEvT_S4_
FN:122,_ZSt8_DestroyIP4CardEvT_S2_
FN:148,_ZSt8_DestroyIP4CardS0_EvT_S2_RSaIT0_E
FNDA:217,_ZSt10_ConstructI4CardJS0_EEvPT_DpOT0_
FNDA:49,_ZNSt12_Destroy_auxILb1EE9__destroyIP4CardEEvT_S4_
FNDA:49,_ZSt8_DestroyIP4CardEvT_S2_
FNDA:49,_ZSt8_DestroyIP4CardS0_EvT_S2_RSaIT0_E
FNF:4
FNH:4
BRDA:75,0,2,217
BRDA:75,0,3,0
BRF:2
BRH:1
DA:74,217
DA:75,217
DA:112,49
DA:122,49
DA:126,49
DA:128,49
DA:148,49
DA:151,49
DA:152,49
LF:9
LH:9
end_of_record
SF:/usr/include/c++/5/bits/stl_heap.h
FN:124,_ZSt11__push_heapIN9__gnu_cxx17__normal_iteratorIP4CardSt6vectorIS2_SaIS2_EEEElS2_NS0_5__ops14_Iter_comp_valIZN4Deck7shuffleEvEUlS2_S2_E_EEEvT_T0_SE_T1_T2_
FN:207,_ZSt13__adjust_heapIN9__gnu_cxx17__normal_iteratorIP4CardSt6vectorIS2_SaIS2_EEEElS2_NS0_5__ops15_Iter_comp_iterIZN4Deck7shuffleEvEUlS2_S2_E_EEEvT_T0_SE_T1_T2_
FN:235,_ZSt10__pop_heapIN9__gnu_cxx17__normal_iteratorIP4CardSt6vectorIS2_SaIS2_EEEENS0_5__ops15_Iter_comp_iterIZN4Deck7shuffleEvEUlS2_S2_E_EEEvT_SD_SD_T0_
FN:317,_ZSt11__make_heapIN9__gnu_cxx17__normal_iteratorIP4CardSt6vectorIS2_SaIS2_EEEENS0_5__ops15_Iter_comp_iterIZN4Deck7shuffleEvEUlS2_S2_E_EEEvT_SD_T0_
FN:390,_ZSt11__sort_heapIN9__gnu_cxx17__normal_iteratorIP4CardSt6vectorIS2_SaIS2_EEEENS0_5__ops15_Iter_comp_iterIZN4Deck7shuffleEvEUlS2_S2_E_EEEvT_SD_T0_
FNDA:0,_ZSt11__push_heapIN9__gnu_cxx17__normal_iteratorIP4CardSt6vectorIS2_SaIS2_EEEElS2_NS0_5__ops14_Iter_comp_valIZN4Deck7shuffleEvEUlS2_S2_E_EEEvT_T0_SE_T1_T2_
FNDA:0,_ZSt13__adjust_heapIN9__gnu_cxx17__normal_iteratorIP4CardSt6vectorIS2_SaIS2_EEEElS2_NS0_5__ops15_Iter_comp_iterIZN4Deck7shuffleEvEUlS2_S2_E_EEEvT_T0_SE_T1_T2_
FNDA:0,_ZSt10__pop_heapIN9__gnu_cxx17__normal_iteratorIP4CardSt6vectorIS2_SaIS2_EEEENS0_5__ops15_Iter_comp_iterIZN4Deck7shuffleEvEUlS2_S2_E_EEEvT_SD_SD_T0_
FNDA:0,_ZSt11__make_heapIN9__gnu_cxx17__normal_iteratorIP4CardSt6vectorIS2_SaIS2_EEEENS0_5__ops15_Iter_comp_iterIZN4Deck7shuffleEvEUlS2_S2_E_EEEvT_SD_T0_
FNDA:0,_ZSt11__sort_heapIN9__gnu_cxx17__normal_iteratorIP4CardSt6vectorIS2_SaIS2_EEEENS0_5__ops15_Iter_comp_iterIZN4Deck7shuffleEvEUlS2_S2_E_EEEvT_SD_T0_
FNF:5
FNH:0
BRDA:129,0,0,-
BRDA:129,0,1,-
BRDA:129,1,4,-
BRDA:129,1,5,-
BRDA:129,4,6,-
BRDA:129,4,7,-
BRDA:212,0,0,-
BRDA:212,0,1,-
BRDA:215,0,3,-
BRDA:215,0,4,-
BRDA:221,0,0,-
BRDA:221,0,1,-
BRDA:221,1,2,-
BRDA:221,1,3,-
BRDA:245,4294967295,2,-
BRDA:245,4294967295,3,-
BRDA:325,0,1,-
BRDA:325,0,2,-
BRDA:333,4294967295,2,-
BRDA:333,4294967295,3,-
BRDA:335,0,0,-
BRDA:335,0,1,-
BRDA:393,0,1,-
BRDA:393,0,2,-
BRF:24
BRH:0
DA:124,0
DA:128,0
DA:129,0
DA:131,0
DA:132,0
DA:133,0
DA:135,0
DA:136,0
DA:207,0
DA:210,0
DA:211,0
DA:212,0
DA:214,0
DA:215,0
DA:217,0
DA:218,0
DA:219,0
DA:221,0
DA:223,0
DA:224,0
DA:226,0
DA:228,0
DA:229,0
DA:231,0
DA:235,0
DA:243,0
DA:244,0
DA:245,0
DA:247,0
DA:248,0
DA:317,0
DA:325,0
DA:326,0
DA:328,0
DA:329,0
DA:330,0
DA:332,0
DA:333,0
DA:335,0
DA:336,0
DA:337,0
DA:390,0
DA:393,0
DA:395,0
DA:396,0
DA:398,0
LF:46
LH:0
end_of_record
SF:/usr/include/c++/5/bits/stl_iterator.h
FN:740,_ZN9__gnu_cxx17__normal_iteratorIP4CardSt6vectorIS1_SaIS1_EEEC2ERKS2_
FN:740,_ZN9__gnu_cxx17__normal_iteratorIPK4CardSt6vectorIS1_SaIS1_EEEC2ERKS3_
FN:745,_ZN9__gnu_cxx17__normal_iteratorIPK4CardSt6vectorIS1_SaIS1_EEEC2IPS1_EERKNS0_IT_NS_11__enable_ifIXsrSt10__are_sameISA_S9_E7__valueES6_E6__typeEEE
FN:753,_ZNK9__gnu_cxx17__normal_iteratorIP4CardSt6vectorIS1_SaIS1_EEEdeEv
FN:761,_ZN9__gnu_cxx17__normal_iteratorIP4CardSt6vectorIS1_SaIS1_EEEppEv
FN:773,_ZN9__gnu_cxx17__normal_iteratorIP4CardSt6vectorIS1_SaIS1_EEEmmEv
FN:793,_ZNK9__gnu_cxx17__normal_iteratorIP4CardSt6vectorIS1_SaIS1_EEEplEl
FN:801,_ZNK9__gnu_cxx17__normal_iteratorIP4CardSt6vectorIS1_SaIS1_EEEmiEl
FN:805,_ZNK9__gnu_cxx17__normal_iteratorIPK4CardSt6vectorIS1_SaIS1_EEE4baseEv
FN:805,_ZNK9__gnu_cxx17__normal_iteratorIP4CardSt6vectorIS1_SaIS1_EEE4baseEv
FN:820,_ZN9__gnu_cxxeqIPK4CardPS1_St6vectorIS1_SaIS1_EEEEbRKNS_17__normal_iteratorIT_T1_EERKNS8_IT0_SA_EE
FN:827,_ZN9__gnu_cxxeqIP4CardSt6vectorIS1_SaIS1_EEEEbRKNS_17__normal_iteratorIT_T0_EESB_
FN:841,_ZN9__gnu_cxxneIP4CardSt6vectorIS1_SaIS1_EEEEbRKNS_17__normal_iteratorIT_T0_EESB_
FN:856,_ZN9__gnu_cxxltIP4CardSt6vectorIS1_SaIS1_EEEEbRKNS_17__normal_iteratorIT_T0_EESB_
FN:911,_ZN9__gnu_cxxmiIPK4CardPS1_St6vectorIS1_SaIS1_EEEEDTmicldtfp_4baseEcldtfp0_4baseEERKNS_17__normal_iteratorIT_T1_EERKNS9_IT0_SB_EE
FN:923,_ZN9__gnu_cxxmiIP4CardSt6vectorIS1_SaIS1_EEEENS_17__normal_iteratorIT_T0_E15difference_typeERKS9_SC_
FN:923,_ZN9__gnu_cxxmiIPK4CardSt6vectorIS1_SaIS1_EEEENS_17__normal_iteratorIT_T0_E15difference_typeERKSA_SD_
FN:984,_ZNSt13move_iteratorIP4CardEC2ES1_
FN:992,_ZNKSt13move_iteratorIP4CardE4baseEv
FN:996,_ZNKSt13move_iteratorIP4CardEdeEv
FN:1004,_ZNSt13move_iteratorIP4CardEppEv
FN:1071,_ZSteqIP4CardEbRKSt13move_iteratorIT_ES6_
FN:1083,_ZStneIP4CardEbRKSt13move_iteratorIT_ES6_
FN:1166,_ZSt32__make_move_if_noexcept_iteratorIP4CardSt13move_iteratorIS1_EET0_T_
FNDA:3,_ZN9__gnu_cxx17__normal_iteratorIPK4CardSt6vectorIS1_SaIS1_EEEC2ERKS3_
FNDA:83,_ZN9__gnu_cxx17__normal_iteratorIP4CardSt6vectorIS1_SaIS1_EEEC2ERKS2_
FNDA:9,_ZN9__gnu_cxx17__normal_iteratorIPK4CardSt6vectorIS1_SaIS1_EEEC2IPS1_EERKNS0_IT_NS_11__enable_ifIXsrSt10__are_sameISA_S9_E7__valueES6_E6__typeEEE
FNDA:465,_ZNK9__gnu_cxx17__normal_iteratorIP4CardSt6vectorIS1_SaIS1_EEEdeEv
FNDA:79,_ZN9__gnu_cxx17__normal_iteratorIP4CardSt6vectorIS1_SaIS1_EEEppEv
FNDA:110,_ZN9__gnu_cxx17__normal_iteratorIP4CardSt6vectorIS1_SaIS1_EEEmmEv
FNDA:16,_ZNK9__gnu_cxx17__normal_iteratorIP4CardSt6vectorIS1_SaIS1_EEEplEl
FNDA:0,_ZNK9__gnu_cxx17__normal_iteratorIP4CardSt6vectorIS1_SaIS1_EEEmiEl
FNDA:24,_ZNK9__gnu_cxx17__normal_iteratorIPK4CardSt6vectorIS1_SaIS1_EEE4baseEv
FNDA:282,_ZNK9__gnu_cxx17__normal_iteratorIP4CardSt6vectorIS1_SaIS1_EEE4baseEv
FNDA:9,_ZN9__gnu_cxxeqIPK4CardPS1_St6vectorIS1_SaIS1_EEEEbRKNS_17__normal_iteratorIT_T1_EERKNS8_IT0_SA_EE
FNDA:5,_ZN9__gnu_cxxeqIP4CardSt6vectorIS1_SaIS1_EEEEbRKNS_17__normal_iteratorIT_T0_EESB_
FNDA:94,_ZN9__gnu_cxxneIP4CardSt6vectorIS1_SaIS1_EEEEbRKNS_17__normal_iteratorIT_T0_EESB_
FNDA:0,_ZN9__gnu_cxxltIP4CardSt6vectorIS1_SaIS1_EEEEbRKNS_17__normal_iteratorIT_T0_EESB_
FNDA:9,_ZN9__gnu_cxxmiIPK4CardPS1_St6vectorIS1_SaIS1_EEEEDTmicldtfp_4baseEcldtfp0_4baseEERKNS_17__normal_iteratorIT_T1_EERKNS9_IT0_SB_EE
FNDA:15,_ZN9__gnu_cxxmiIP4CardSt6vectorIS1_SaIS1_EEEENS_17__normal_iteratorIT_T0_E15difference_typeERKS9_SC_
FNDA:3,_ZN9__gnu_cxxmiIPK4CardSt6vectorIS1_SaIS1_EEEENS_17__normal_iteratorIT_T0_E15difference_typeERKSA_SD_
FNDA:84,_ZNSt13move_iteratorIP4CardEC2ES1_
FNDA:518,_ZNKSt13move_iteratorIP4CardE4baseEv
FNDA:217,_ZNKSt13move_iteratorIP4CardEdeEv
FNDA:217,_ZNSt13move_iteratorIP4CardEppEv
FNDA:259,_ZSteqIP4CardEbRKSt13move_iteratorIT_ES6_
FNDA:259,_ZStneIP4CardEbRKSt13move_iteratorIT_ES6_
FNDA:84,_ZSt32__make_move_if_noexcept_iteratorIP4CardSt13move_iteratorIS1_EET0_T_
FNF:24
FNH:22
DA:740,86
DA:741,86
DA:745,9
DA:749,9
DA:753,465
DA:754,465
DA:761,79
DA:763,79
DA:764,79
DA:773,110
DA:775,110
DA:776,110
DA:793,16
DA:794,16
DA:801,0
DA:802,0
DA:805,306
DA:806,306
DA:820,9
DA:823,9
DA:827,5
DA:830,5
DA:841,94
DA:844,94
DA:856,0
DA:859,0
DA:911,9
DA:919,9
DA:923,18
DA:926,18
DA:984,84
DA:985,84
DA:992,518
DA:993,518
DA:996,217
DA:997,217
DA:1004,217
DA:1006,217
DA:1007,217
DA:1071,259
DA:1073,259
DA:1083,259
DA:1085,259
DA:1166,84
DA:1167,84
LF:45
LH:41
end_of_record
SF:/usr/include/c++/5/bits/stl_iterator_base_types.h
FN:215,_ZNSt10_Iter_baseIP4CardLb0EE7_S_baseES1_
FN:215,_ZNSt10_Iter_baseIN9__gnu_cxx17__normal_iteratorIP4CardSt6vectorIS2_SaIS2_EEEELb0EE7_S_baseES7_
FN:223,_ZNSt10_Iter_baseIN9__gnu_cxx17__normal_iteratorIP4CardSt6vectorIS2_SaIS2_EEEELb1EE7_S_baseES7_
FNDA:16,_ZNSt10_Iter_baseIN9__gnu_cxx17__normal_iteratorIP4CardSt6vectorIS2_SaIS2_EEEELb0EE7_S_baseES7_
FNDA:15,_ZNSt10_Iter_baseIP4CardLb0EE7_S_baseES1_
FNDA:24,_ZNSt10_Iter_baseIN9__gnu_cxx17__normal_iteratorIP4CardSt6vectorIS2_SaIS2_EEEELb1EE7_S_baseES7_
FNF:3
FNH:3
DA:215,31
DA:216,31
DA:223,24
DA:224,24
LF:4
LH:4
end_of_record
SF:/usr/include/c++/5/bits/stl_uninitialized.h
FN:68,_ZNSt20__uninitialized_copyILb0EE13__uninit_copyISt13move_iteratorIP4CardES4_EET0_T_S7_S6_
FN:107,_ZSt18uninitialized_copyISt13move_iteratorIP4CardES2_ET0_T_S5_S4_
FN:279,_ZSt22__uninitialized_copy_aISt13move_iteratorIP4CardES2_S1_ET0_T_S5_S4_RSaIT1_E
FN:297,_ZSt34__uninitialized_move_if_noexcept_aIP4CardS1_SaIS0_EET0_T_S4_S3_RT1_
FNDA:42,_ZNSt20__uninitialized_copyILb0EE13__uninit_copyISt13move_iteratorIP4CardES4_EET0_T_S7_S6_
FNDA:42,_ZSt18uninitialized_copyISt13move_iteratorIP4CardES2_ET0_T_S5_S4_
FNDA:42,_ZSt22__uninitialized_copy_aISt13move_iteratorIP4CardES2_S1_ET0_T_S5_S4_RSaIT1_E
FNDA:42,_ZSt34__uninitialized_move_if_noexcept_aIP4CardS1_SaIS0_EET0_T_S4_S3_RT1_
FNF:4
FNH:4
BRDA:74,0,1,259
BRDA:74,0,2,0
BRDA:74,1,3,217
BRDA:74,1,4,42
BRDA:80,4294967295,1,-
BRDA:80,4294967295,2,-
BRF:6
BRH:3
DA:68,42
DA:71,42
DA:74,259
DA:75,217
DA:76,42
DA:78,0
DA:80,0
DA:81,0
DA:107,42
DA:120,42
DA:126,42
DA:279,42
DA:281,42
DA:297,42
DA:303,42
DA:304,42
LF:16
LH:13
end_of_record
SF:/usr/include/c++/5/bits/stl_vector.h
FN:113,_ZNSt12_Vector_baseI4CardSaIS0_EE19_M_get_Tp_allocatorEv
FN:117,_ZNKSt12_Vector_baseI4CardSaIS0_EE19_M_get_Tp_allocatorEv
FN:167,_ZNSt12_Vector_baseI4CardSaIS0_EE11_M_allocateEm
FN:174,_ZNSt12_Vector_baseI4CardSaIS0_EE13_M_deallocateEPS0_m
FN:547,_ZNSt6vectorI4CardSaIS0_EE5beginEv
FN:565,_ZNSt6vectorI4CardSaIS0_EE3endEv
FN:620,_ZNKSt6vectorI4CardSaIS0_EE6cbeginEv
FN:654,_ZNKSt6vectorI4CardSaIS0_EE4sizeEv
FN:659,_ZNKSt6vectorI4CardSaIS0_EE8max_sizeEv
FN:779,_ZNSt6vectorI4CardSaIS0_EEixEm
FN:931,_ZNSt6vectorI4CardSaIS0_EE9push_backEOS0_
FN:949,_ZNSt6vectorI4CardSaIS0_EE8pop_backEv
FN:1014,_ZNSt6vectorI4CardSaIS0_EE6insertEN9__gnu_cxx17__normal_iteratorIPKS0_S2_EEOS0_
FN:1422,_ZNKSt6vectorI4CardSaIS0_EE12_M_check_lenEmPKc
FNDA:91,_ZNSt12_Vector_baseI4CardSaIS0_EE19_M_get_Tp_allocatorEv
FNDA:84,_ZNKSt12_Vector_baseI4CardSaIS0_EE19_M_get_Tp_allocatorEv
FNDA:42,_ZNSt12_Vector_baseI4CardSaIS0_EE11_M_allocateEm
FNDA:49,_ZNSt12_Vector_baseI4CardSaIS0_EE13_M_deallocateEPS0_m
FNDA:31,_ZNSt6vectorI4CardSaIS0_EE5beginEv
FNDA:19,_ZNSt6vectorI4CardSaIS0_EE3endEv
FNDA:3,_ZNKSt6vectorI4CardSaIS0_EE6cbeginEv
FNDA:546,_ZNKSt6vectorI4CardSaIS0_EE4sizeEv
FNDA:84,_ZNKSt6vectorI4CardSaIS0_EE8max_sizeEv
FNDA:586,_ZNSt6vectorI4CardSaIS0_EEixEm
FNDA:188,_ZNSt6vectorI4CardSaIS0_EE9push_backEOS0_
FNDA:142,_ZNSt6vectorI4CardSaIS0_EE8pop_backEv
FNDA:9,_ZNSt6vectorI4CardSaIS0_EE6insertEN9__gnu_cxx17__normal_iteratorIPKS0_S2_EEOS0_
FNDA:42,_ZNKSt6vectorI4CardSaIS0_EE12_M_check_lenEmPKc
FNF:14
FNH:14
BRDA:170,0,0,42
BRDA:170,0,1,0
BRDA:177,0,0,42
BRDA:177,0,1,7
BRDA:1424,0,2,0
BRDA:1424,0,3,42
BRDA:1428,4294967295,1,42
BRDA:1428,4294967295,2,0
BRDA:1428,0,4,0
BRDA:1428,0,5,42
BRF:10
BRH:6
DA:113,91
DA:114,91
DA:117,84
DA:118,84
DA:167,42
DA:170,42
DA:174,49
DA:177,49
DA:178,42
DA:179,49
DA:547,31
DA:548,31
DA:565,19
DA:566,19
DA:620,3
DA:621,3
DA:654,546
DA:655,546
DA:659,84
DA:660,84
DA:779,586
DA:780,586
DA:931,188
DA:932,188
DA:949,142
DA:951,142
DA:952,142
DA:953,142
DA:1014,9
DA:1015,9
DA:1422,42
DA:1424,42
DA:1425,0
DA:1427,42
DA:1428,42
LF:35
LH:34
end_of_record
SF:/usr/include/c++/5/bits/vector.tcc
FN:91,_ZNSt6vectorI4CardSaIS0_EE12emplace_backIJS0_EEEvDpOT_
FN:301,_ZNSt6vectorI4CardSaIS0_EE7emplaceIJS0_EEEN9__gnu_cxx17__normal_iteratorIPS0_S2_EENS5_IPKS0_S2_EEDpOT_
FN:321,_ZNSt6vectorI4CardSaIS0_EE13_M_insert_auxIJS0_EEEvN9__gnu_cxx17__normal_iteratorIPS0_S2_EEDpOT_
FN:407,_ZNSt6vectorI4CardSaIS0_EE19_M_emplace_back_auxIJS0_EEEvDpOT_
FNDA:188,_ZNSt6vectorI4CardSaIS0_EE12emplace_backIJS0_EEEvDpOT_
FNDA:9,_ZNSt6vectorI4CardSaIS0_EE7emplaceIJS0_EEEN9__gnu_cxx17__normal_iteratorIPS0_S2_EENS5_IPKS0_S2_EEDpOT_
FNDA:3,_ZNSt6vectorI4CardSaIS0_EE13_M_insert_auxIJS0_EEEvN9__gnu_cxx17__normal_iteratorIPS0_S2_EEDpOT_
FNDA:42,_ZNSt6vectorI4CardSaIS0_EE19_M_emplace_back_auxIJS0_EEEvDpOT_
FNF:4
FNH:4
BRDA:94,0,0,146
BRDA:94,0,1,42
BRDA:305,4294967295,0,9
BRDA:305,4294967295,1,0
BRDA:305,4294967295,2,6
BRDA:305,4294967295,3,3
BRDA:305,4,4,6
BRDA:305,4,5,3
BRDA:306,1,2,0
BRDA:306,1,3,9
BRDA:313,4294967295,5,3
BRDA:313,4294967295,6,0
BRDA:330,0,0,3
BRDA:330,0,1,0
BRDA:361,4294967295,1,-
BRDA:361,4294967295,2,-
BRDA:370,4294967295,1,-
BRDA:370,4294967295,2,-
BRDA:377,4294967295,1,-
BRDA:377,4294967295,2,-
BRDA:384,4294967295,0,-
BRDA:384,4294967295,1,-
BRDA:385,4294967295,1,-
BRDA:385,4294967295,2,-
BRDA:388,4294967295,2,-
BRDA:388,4294967295,3,-
BRDA:389,4294967295,1,-
BRDA:389,4294967295,2,-
BRDA:416,4294967295,2,42
BRDA:416,4294967295,3,0
BRDA:420,4294967295,1,42
BRDA:420,4294967295,2,0
BRDA:429,4294967295,0,-
BRDA:429,4294967295,1,-
BRDA:430,4294967295,2,-
BRDA:430,4294967295,3,-
BRDA:432,4294967295,2,-
BRDA:432,4294967295,3,-
BRDA:433,4294967295,1,-
BRDA:433,4294967295,2,-
BRF:40
BRH:12
DA:91,188
DA:94,188
DA:96,146
DA:97,146
DA:98,146
DA:101,42
DA:102,188
DA:301,9
DA:304,9
DA:305,36
DA:306,27
DA:308,6
DA:309,6
DA:310,6
DA:313,3
DA:314,3
DA:315,9
DA:321,3
DA:330,3
DA:332,3
DA:333,3
DA:335,3
DA:339,3
DA:345,3
DA:351,0
DA:352,0
DA:353,0
DA:354,0
DA:361,0
DA:364,0
DA:368,0
DA:370,0
DA:372,0
DA:373,0
DA:375,0
DA:377,0
DA:379,0
DA:380,0
DA:382,0
DA:384,0
DA:385,0
DA:388,0
DA:389,0
DA:390,0
DA:392,0
DA:393,0
DA:394,0
DA:396,0
DA:397,0
DA:398,0
DA:399,0
DA:401,3
DA:407,42
DA:411,42
DA:412,42
DA:413,42
DA:416,42
DA:417,42
DA:418,42
DA:420,42
DA:422,42
DA:423,42
DA:425,42
DA:427,0
DA:429,0
DA:430,0
DA:432,0
DA:433,0
DA:434,0
DA:436,42
DA:437,42
DA:438,42
DA:440,84
DA:441,42
DA:442,42
DA:443,42
DA:444,42
LF:77
LH:44
end_of_record
SF:/usr/include/c++/5/ext/new_allocator.h
FN:99,_ZN9__gnu_cxx13new_allocatorI4CardE8allocateEmPKv
FN:109,_ZN9__gnu_cxx13new_allocatorI4CardE10deallocateEPS1_m
FN:113,_ZNK9__gnu_cxx13new_allocatorI4CardE8max_sizeEv
FN:119,_ZN9__gnu_cxx13new_allocatorI4CardE9constructIS1_JS1_EEEvPT_DpOT0_
FN:124,_ZN9__gnu_cxx13new_allocatorI4CardE7destroyIS1_EEvPT_
FNDA:42,_ZN9__gnu_cxx13new_allocatorI4CardE8allocateEmPKv
FNDA:42,_ZN9__gnu_cxx13new_allocatorI4CardE10deallocateEPS1_m
FNDA:126,_ZNK9__gnu_cxx13new_allocatorI4CardE8max_sizeEv
FNDA:197,_ZN9__gnu_cxx13new_allocatorI4CardE9constructIS1_JS1_EEEvPT_DpOT0_
FNDA:142,_ZN9__gnu_cxx13new_allocatorI4CardE7destroyIS1_EEvPT_
FNF:5
FNH:5
BRDA:101,0,1,0
BRDA:101,0,2,42
BRDA:120,0,2,197
BRDA:120,0,3,0
BRF:4
BRH:2
DA:99,42
DA:101,42
DA:102,0
DA:104,42
DA:109,42
DA:110,42
DA:113,126
DA:114,126
DA:119,197
DA:120,197
DA:124,142
LF:11
LH:10
end_of_record
SF:/usr/include/c++/5/iostream
DA:74,7
LF:1
LH:1
end_of_record
SF:/usr/include/c++/5/limits
FN:1140,_ZNSt14numeric_limitsIlE3maxEv
FNDA:135,_ZNSt14numeric_limitsIlE3maxEv
FNF:1
FNH:1
DA:1140,270
LF:1
LH:1
end_of_record
SF:/usr/include/c++/5/new
FN:129,_ZnwmPv
FNDA:414,_ZnwmPv
FNF:1
FNH:1
DA:129,414
DA:130,414
LF:2
LH:2
end_of_record
SF:/home/lepossum/Prac/Kittens/Coverage/Include/cards.hpp
FN:28,_ZN4Card8get_typeEv
FN:29,_ZN4Card7get_keyEv
FN:38,_ZN4Deck4sizeEv
FN:68,_ZN6Player11inc_lost_amEv
FNDA:301,_ZN4Card8get_typeEv
FNDA:294,_ZN4Card7get_keyEv
FNDA:328,_ZN4Deck4sizeEv
FNDA:18,_ZN6Player11inc_lost_amEv
FNF:4
FNH:4
DA:28,602
DA:29,588
DA:38,656
DA:68,18
LF:4
LH:4
end_of_record
SF:/home/lepossum/Prac/Kittens/Coverage/Source/cards.cpp
FN:3,_ZN4CardC2E9Card_type
FN:8,_ZN4Card10change_keyEv
FN:12,_ZlsRSo4Card
FN:38,_ZN4Deck11create_deckEi
FN:68,_ZN4Deck12push_explodeEv
FN:123,_ZN4Deck7shuffleEv
FN:125,_ZZN4Deck7shuffleEvENKUl4CardS0_E_clES0_S0_
FN:133,_ZN4Deck8forecastEv
FN:146,_ZN6Player8get_cardER4Deck
FN:153,_ZN6Player14start_get_cardER4Deck
FN:185,_ZN6Player10print_selfEv
FN:211,_ZN6Player4slapEi
FN:230,_ZN6Player13continue_moveER4Decki
FN:278,_ZN6Player10start_moveER4Decki
FN:326,_Z41__static_initialization_and_destruction_0ii
FN:326,_GLOBAL__sub_I__ZN4CardC2E9Card_type
FNDA:272,_ZN4CardC2E9Card_type
FNDA:42,_ZN4Card10change_keyEv
FNDA:24,_ZlsRSo4Card
FNDA:7,_ZN4Deck11create_deckEi
FNDA:18,_ZN4Deck12push_explodeEv
FNDA:5,_ZN4Deck7shuffleEv
FNDA:147,_ZZN4Deck7shuffleEvENKUl4CardS0_E_clES0_S0_
FNDA:8,_ZN4Deck8forecastEv
FNDA:67,_ZN6Player8get_cardER4Deck
FNDA:75,_ZN6Player14start_get_cardER4Deck
FNDA:246,_ZN6Player10print_selfEv
FNDA:10,_ZN6Player4slapEi
FNDA:83,_ZN6Player13continue_moveER4Decki
FNDA:83,_ZN6Player10start_moveER4Decki
FNDA:7,_GLOBAL__sub_I__ZN4CardC2E9Card_type
FNDA:7,_Z41__static_initialization_and_destruction_0ii
FNF:16
FNH:16
BRDA:14,4294967295,1,7
BRDA:14,4294967295,2,4
BRDA:14,4294967295,3,4
BRDA:14,4294967295,4,4
BRDA:14,4294967295,5,3
BRDA:14,4294967295,6,2
BRDA:14,4294967295,7,0
BRDA:49,1,0,42
BRDA:49,1,1,7
BRDA:53,0,0,179
BRDA:53,0,1,7
BRDA:55,0,0,251
BRDA:55,0,1,179
BRDA:57,4294967295,0,179
BRDA:57,4294967295,1,72
BRDA:60,0,2,179
BRDA:60,0,3,0
BRDA:70,0,1,18
BRDA:70,0,2,0
BRDA:71,0,1,18
BRDA:71,0,2,0
BRDA:72,0,1,18
BRDA:72,0,2,0
BRDA:73,0,1,18
BRDA:73,0,2,0
BRDA:74,0,1,18
BRDA:74,0,2,0
BRDA:75,0,1,18
BRDA:75,0,2,0
BRDA:76,0,1,18
BRDA:76,0,2,0
BRDA:80,0,1,25
BRDA:80,0,2,0
BRDA:80,1,4,25
BRDA:80,1,5,0
BRDA:80,2,6,25
BRDA:80,2,7,0
BRDA:80,3,9,25
BRDA:80,3,10,0
BRDA:80,4,11,5
BRDA:80,4,12,20
BRDA:80,7,13,5
BRDA:80,7,14,20
BRDA:81,0,1,5
BRDA:81,0,2,0
BRDA:82,0,2,5
BRDA:82,0,3,0
BRDA:83,0,1,5
BRDA:83,0,2,0
BRDA:86,0,0,1
BRDA:86,0,1,5
BRDA:86,0,2,3
BRDA:86,0,3,9
BRDA:86,0,4,2
BRDA:89,0,0,1
BRDA:89,0,1,0
BRDA:90,0,2,1
BRDA:90,0,3,0
BRDA:98,0,0,5
BRDA:98,0,1,0
BRDA:99,0,2,5
BRDA:99,0,3,0
BRDA:106,0,2,3
BRDA:106,0,3,0
BRDA:111,4294967295,3,9
BRDA:111,4294967295,4,0
BRDA:117,0,1,2
BRDA:117,0,2,0
BRDA:120,0,0,2
BRDA:120,0,1,18
BRDA:127,4294967295,1,5
BRDA:127,4294967295,2,0
BRDA:128,1,3,42
BRDA:128,1,4,5
BRDA:135,4294967295,0,8
BRDA:135,4294967295,1,0
BRDA:137,4294967295,0,8
BRDA:137,4294967295,1,0
BRDA:139,4294967295,0,8
BRDA:139,4294967295,1,0
BRDA:158,0,0,135
BRDA:158,0,1,75
BRDA:159,0,0,135
BRDA:159,0,1,0
BRDA:162,4294967295,0,60
BRDA:162,4294967295,1,75
BRDA:169,0,0,84
BRDA:169,0,1,51
BRDA:187,0,1,246
BRDA:187,0,2,0
BRDA:188,0,1,246
BRDA:188,0,2,0
BRDA:188,1,4,246
BRDA:188,1,5,0
BRDA:189,0,0,39
BRDA:189,0,1,207
BRDA:190,0,1,39
BRDA:190,0,2,0
BRDA:190,1,4,39
BRDA:190,1,5,0
BRDA:191,0,0,23
BRDA:191,0,1,223
BRDA:192,0,1,23
BRDA:192,0,2,0
BRDA:192,1,4,23
BRDA:192,1,5,0
BRDA:193,0,0,60
BRDA:193,0,1,186
BRDA:194,0,1,60
BRDA:194,0,2,0
BRDA:194,1,4,60
BRDA:194,1,5,0
BRDA:195,0,0,76
BRDA:195,0,1,170
BRDA:196,0,1,76
BRDA:196,0,2,0
BRDA:196,1,4,76
BRDA:196,1,5,0
BRDA:197,0,0,163
BRDA:197,0,1,83
BRDA:198,0,1,163
BRDA:198,0,2,0
BRDA:198,1,4,163
BRDA:198,1,5,0
BRDA:198,2,7,163
BRDA:198,2,8,0
BRDA:198,3,10,163
BRDA:198,3,11,0
BRDA:201,0,1,289
BRDA:201,0,2,0
BRDA:202,0,1,405
BRDA:202,0,2,0
BRDA:202,1,4,405
BRDA:202,1,5,0
BRDA:202,2,6,405
BRDA:202,2,7,0
BRDA:202,3,9,405
BRDA:202,3,10,0
BRDA:202,4,11,116
BRDA:202,4,12,289
BRDA:202,7,13,116
BRDA:202,7,14,289
BRDA:203,0,1,116
BRDA:203,0,2,0
BRDA:204,0,2,116
BRDA:204,0,3,0
BRDA:205,0,1,116
BRDA:205,0,2,0
BRDA:207,0,0,250
BRDA:207,0,1,39
BRDA:207,1,2,4
BRDA:207,1,3,246
BRDA:214,0,1,20
BRDA:214,0,2,0
BRDA:215,0,1,28
BRDA:215,0,2,0
BRDA:215,1,4,28
BRDA:215,1,5,0
BRDA:215,2,6,28
BRDA:215,2,7,0
BRDA:215,3,9,28
BRDA:215,3,10,0
BRDA:215,4,11,8
BRDA:215,4,12,20
BRDA:215,7,13,8
BRDA:215,7,14,20
BRDA:216,0,1,8
BRDA:216,0,2,0
BRDA:217,0,2,8
BRDA:217,0,3,0
BRDA:218,0,1,8
BRDA:218,0,2,0
BRDA:220,0,0,2
BRDA:220,0,1,18
BRDA:221,0,1,2
BRDA:221,0,2,0
BRDA:223,0,0,12
BRDA:223,0,1,8
BRDA:223,1,2,0
BRDA:223,1,3,12
BRDA:224,0,1,8
BRDA:224,0,2,0
BRDA:224,1,4,8
BRDA:224,1,5,0
BRDA:224,2,7,8
BRDA:224,2,8,0
BRDA:226,0,0,12
BRDA:226,0,1,8
BRDA:226,1,2,12
BRDA:226,1,3,0
BRDA:226,2,4,2
BRDA:226,2,5,10
BRDA:233,0,0,163
BRDA:233,0,1,67
BRDA:235,4294967295,0,67
BRDA:235,4294967295,1,61
BRDA:235,4294967295,2,52
BRDA:235,4294967295,3,34
BRDA:235,4294967295,4,32
BRDA:235,4294967295,5,0
BRDA:240,0,0,10
BRDA:240,0,1,51
BRDA:248,0,0,6
BRDA:248,0,1,46
BRDA:256,0,0,5
BRDA:256,0,1,29
BRDA:265,0,0,8
BRDA:265,0,1,24
BRDA:280,0,1,83
BRDA:280,0,2,0
BRDA:280,1,3,83
BRDA:280,1,4,0
BRDA:280,2,6,83
BRDA:280,2,7,0
BRDA:281,0,1,83
BRDA:281,0,2,0
BRDA:281,1,4,83
BRDA:281,1,5,0
BRDA:281,2,7,83
BRDA:281,2,8,0
BRDA:281,3,10,83
BRDA:281,3,11,0
BRDA:281,4,13,83
BRDA:281,4,14,0
BRDA:282,0,1,83
BRDA:282,0,2,0
BRDA:283,0,0,16
BRDA:283,0,1,67
BRDA:287,4294967295,0,36
BRDA:287,4294967295,1,31
BRDA:288,0,1,36
BRDA:288,0,2,0
BRDA:289,0,1,36
BRDA:289,0,2,0
BRDA:290,0,1,36
BRDA:290,0,2,0
BRDA:291,0,0,20
BRDA:291,0,1,16
BRDA:292,0,1,20
BRDA:292,0,2,0
BRDA:293,0,1,20
BRDA:293,0,2,0
BRDA:294,0,1,20
BRDA:294,0,2,0
BRDA:295,0,1,25
BRDA:295,0,2,0
BRDA:295,1,4,25
BRDA:295,1,5,0
BRDA:295,2,6,25
BRDA:295,2,7,0
BRDA:295,3,9,25
BRDA:295,3,10,0
BRDA:295,4,11,5
BRDA:295,4,12,20
BRDA:295,7,13,5
BRDA:295,7,14,20
BRDA:296,0,1,5
BRDA:296,0,2,0
BRDA:297,0,2,5
BRDA:297,0,3,0
BRDA:298,0,1,5
BRDA:298,0,2,0
BRDA:300,0,0,18
BRDA:300,0,1,2
BRDA:300,1,2,0
BRDA:300,1,3,18
BRDA:301,0,1,2
BRDA:301,0,2,0
BRDA:303,4294967295,1,2
BRDA:303,4294967295,2,0
BRDA:308,0,1,18
BRDA:308,0,2,0
BRDA:309,0,1,18
BRDA:309,0,2,0
BRDA:310,0,1,18
BRDA:310,0,2,0
BRDA:314,0,1,18
BRDA:314,0,2,0
BRDA:317,0,1,16
BRDA:317,0,2,0
BRDA:319,4294967295,1,16
BRDA:319,4294967295,2,0
BRDA:326,3,1,7
BRDA:326,3,2,0
BRDA:326,4,3,7
BRDA:326,4,4,0
BRF:286
BRH:187
DA:3,272
DA:4,272
DA:5,272
DA:6,272
DA:8,42
DA:9,42
DA:10,42
DA:12,24
DA:13,24
DA:14,24
DA:16,7
DA:17,7
DA:19,4
DA:20,4
DA:22,4
DA:23,4
DA:25,4
DA:26,4
DA:28,3
DA:29,3
DA:31,2
DA:32,2
DA:34,24
DA:35,24
DA:38,7
DA:41,7
DA:42,7
DA:43,7
DA:44,7
DA:45,7
DA:46,7
DA:48,7
DA:49,49
DA:50,42
DA:53,186
DA:54,179
DA:55,430
DA:56,251
DA:57,251
DA:58,179
DA:59,179
DA:60,179
DA:61,179
DA:65,7
DA:68,18
DA:70,18
DA:71,18
DA:72,18
DA:73,18
DA:74,18
DA:75,18
DA:76,18
DA:77,18
DA:79,2
DA:80,25
DA:81,5
DA:82,5
DA:83,5
DA:85,20
DA:86,20
DA:89,1
DA:90,1
DA:91,1
DA:92,1
DA:93,1
DA:94,1
DA:98,5
DA:99,5
DA:100,5
DA:101,5
DA:102,5
DA:103,5
DA:106,3
DA:107,3
DA:110,9
DA:111,9
DA:113,9
DA:116,2
DA:117,2
DA:120,20
DA:121,18
DA:123,5
DA:124,5
DA:125,147
DA:126,147
DA:127,152
DA:128,47
DA:129,42
DA:131,5
DA:133,8
DA:134,8
DA:135,8
DA:136,8
DA:137,8
DA:138,8
DA:139,8
DA:140,8
DA:144,8
DA:146,67
DA:147,67
DA:148,67
DA:149,67
DA:150,67
DA:151,67
DA:153,75
DA:154,75
DA:155,75
DA:156,75
DA:158,210
DA:159,135
DA:160,135
DA:161,135
DA:162,135
DA:163,60
DA:164,60
DA:166,75
DA:167,75
DA:169,135
DA:171,84
DA:173,84
DA:174,84
DA:175,135
DA:181,75
DA:182,75
DA:183,75
DA:185,246
DA:187,246
DA:188,246
DA:189,246
DA:190,39
DA:191,246
DA:192,23
DA:193,246
DA:194,60
DA:195,246
DA:196,76
DA:197,246
DA:198,163
DA:200,43
DA:201,289
DA:202,405
DA:203,116
DA:204,116
DA:205,116
DA:207,289
DA:208,246
DA:211,10
DA:213,10
DA:214,20
DA:215,28
DA:216,8
DA:217,8
DA:218,8
DA:220,20
DA:221,2
DA:223,20
DA:224,8
DA:226,20
DA:227,10
DA:230,83
DA:232,83
DA:233,230
DA:234,246
DA:235,246
DA:237,67
DA:238,67
DA:240,61
DA:241,10
DA:242,10
DA:244,51
DA:245,51
DA:248,52
DA:249,6
DA:250,6
DA:252,46
DA:253,46
DA:256,34
DA:257,5
DA:258,5
DA:259,5
DA:261,29
DA:262,29
DA:265,32
DA:266,8
DA:267,8
DA:268,8
DA:270,24
DA:271,24
DA:275,67
DA:278,83
DA:279,83
DA:280,83
DA:281,83
DA:282,83
DA:283,83
DA:284,67
DA:287,67
DA:288,36
DA:289,36
DA:290,36
DA:291,36
DA:292,20
DA:293,20
DA:294,20
DA:295,25
DA:296,5
DA:297,5
DA:298,5
DA:300,20
DA:301,2
DA:302,4
DA:303,2
DA:304,2
DA:305,2
DA:306,2
DA:308,18
DA:309,18
DA:310,18
DA:311,18
DA:312,18
DA:314,18
DA:317,16
DA:318,50
DA:319,16
DA:320,16
DA:321,16
DA:322,16
DA:325,83
DA:326,28
LF:229
LH:229
end_of_record
